target datalayout = "e-m:e-p270:32:32-p271:32:32-p272:64:64-i64:64-i128:128-f80:128-n8:16:32:64-S128"
target triple = "x86_64-unknown-linux-gnu"

%"class.OpenColorIO_v2_4dev::Lut3DTransformImpl" = type { %"class.OpenColorIO_v2_4dev::Lut3DTransform", %"class.OpenColorIO_v2_4dev::Lut3DOpData" }
%"class.OpenColorIO_v2_4dev::Lut3DTransform" = type { %"class.OpenColorIO_v2_4dev::Transform" }
%"class.OpenColorIO_v2_4dev::Transform" = type { ptr }
%"class.OpenColorIO_v2_4dev::Lut3DOpData" = type { %"class.OpenColorIO_v2_4dev::OpData", i32, %"class.OpenColorIO_v2_4dev::Lut3DOpData::Lut3DArray", i32, i32 }
%"class.OpenColorIO_v2_4dev::OpData" = type { ptr, %"class.std::mutex", %"class.OpenColorIO_v2_4dev::FormatMetadataImpl" }
%"class.std::mutex" = type { %"class.std::__mutex_base" }
%"class.std::__mutex_base" = type { %union.pthread_mutex_t }
%union.pthread_mutex_t = type { %struct.__pthread_mutex_s }
%struct.__pthread_mutex_s = type { i32, i32, i32, i32, i32, i16, i16, %struct.__pthread_internal_list }
%struct.__pthread_internal_list = type { ptr, ptr }
%"class.OpenColorIO_v2_4dev::FormatMetadataImpl" = type { %"class.OpenColorIO_v2_4dev::FormatMetadata", %"class.std::__cxx11::basic_string", %"class.std::__cxx11::basic_string", %"class.std::vector", %"class.std::vector.3" }
%"class.OpenColorIO_v2_4dev::FormatMetadata" = type { ptr }
%"class.std::__cxx11::basic_string" = type { %"struct.std::__cxx11::basic_string<char>::_Alloc_hider", i64, %union.anon }
%"struct.std::__cxx11::basic_string<char>::_Alloc_hider" = type { ptr }
%union.anon = type { i64, [8 x i8] }
%"class.std::vector" = type { %"struct.std::_Vector_base" }
%"struct.std::_Vector_base" = type { %"struct.std::_Vector_base<std::pair<std::__cxx11::basic_string<char>, std::__cxx11::basic_string<char>>, std::allocator<std::pair<std::__cxx11::basic_string<char>, std::__cxx11::basic_string<char>>>>::_Vector_impl" }
%"struct.std::_Vector_base<std::pair<std::__cxx11::basic_string<char>, std::__cxx11::basic_string<char>>, std::allocator<std::pair<std::__cxx11::basic_string<char>, std::__cxx11::basic_string<char>>>>::_Vector_impl" = type { %"struct.std::_Vector_base<std::pair<std::__cxx11::basic_string<char>, std::__cxx11::basic_string<char>>, std::allocator<std::pair<std::__cxx11::basic_string<char>, std::__cxx11::basic_string<char>>>>::_Vector_impl_data" }
%"struct.std::_Vector_base<std::pair<std::__cxx11::basic_string<char>, std::__cxx11::basic_string<char>>, std::allocator<std::pair<std::__cxx11::basic_string<char>, std::__cxx11::basic_string<char>>>>::_Vector_impl_data" = type { ptr, ptr, ptr }
%"class.std::vector.3" = type { %"struct.std::_Vector_base.4" }
%"struct.std::_Vector_base.4" = type { %"struct.std::_Vector_base<OpenColorIO_v2_4dev::FormatMetadataImpl, std::allocator<OpenColorIO_v2_4dev::FormatMetadataImpl>>::_Vector_impl" }
%"struct.std::_Vector_base<OpenColorIO_v2_4dev::FormatMetadataImpl, std::allocator<OpenColorIO_v2_4dev::FormatMetadataImpl>>::_Vector_impl" = type { %"struct.std::_Vector_base<OpenColorIO_v2_4dev::FormatMetadataImpl, std::allocator<OpenColorIO_v2_4dev::FormatMetadataImpl>>::_Vector_impl_data" }
%"struct.std::_Vector_base<OpenColorIO_v2_4dev::FormatMetadataImpl, std::allocator<OpenColorIO_v2_4dev::FormatMetadataImpl>>::_Vector_impl_data" = type { ptr, ptr, ptr }
%"class.OpenColorIO_v2_4dev::Lut3DOpData::Lut3DArray" = type { %"class.OpenColorIO_v2_4dev::ArrayT" }
%"class.OpenColorIO_v2_4dev::ArrayT" = type { %"class.OpenColorIO_v2_4dev::ArrayBase", i64, i64, %"class.std::vector.8" }
%"class.OpenColorIO_v2_4dev::ArrayBase" = type { ptr }
%"class.std::vector.8" = type { %"struct.std::_Vector_base.9" }
%"struct.std::_Vector_base.9" = type { %"struct.std::_Vector_base<float, std::allocator<float>>::_Vector_impl" }
%"struct.std::_Vector_base<float, std::allocator<float>>::_Vector_impl" = type { %"struct.std::_Vector_base<float, std::allocator<float>>::_Vector_impl_data" }
%"struct.std::_Vector_base<float, std::allocator<float>>::_Vector_impl_data" = type { ptr, ptr, ptr }

@_ZN19OpenColorIO_v2_4dev12_GLOBAL__N_111COMPONENT_RE = internal constant [4 x i8] c"Red\00", align 1
@_ZN19OpenColorIO_v2_4dev12_GLOBAL__N_111COMPONENT_GE = internal constant [6 x i8] c"Green\00", align 1
@_ZN19OpenColorIO_v2_4dev12_GLOBAL__N_111COMPONENT_BE = internal constant [5 x i8] c"Blue\00", align 1
@.str.2 = private unnamed_addr constant [9 x i8] c"getValue\00", align 1

; Function Attrs: mustprogress nounwind uwtable
define linkonce_odr hidden noundef nonnull align 4 dereferenceable(4) ptr @_ZNKSt6vectorIfSaIfEEixEm(ptr noundef nonnull align 8 dereferenceable(24) %this, i64 noundef %__n) #7 comdat align 2 {
entry:
  %this.addr = alloca ptr, align 8
  %__n.addr = alloca i64, align 8
  store ptr %this, ptr %this.addr, align 8
  store i64 %__n, ptr %__n.addr, align 8
  %this1 = load ptr, ptr %this.addr, align 8
  %_M_impl = getelementptr inbounds %"struct.std::_Vector_base.9", ptr %this1, i32 0, i32 0
  %_M_start = getelementptr inbounds %"struct.std::_Vector_base<float, std::allocator<float>>::_Vector_impl_data", ptr %_M_impl, i32 0, i32 0
  %0 = load ptr, ptr %_M_start, align 8
  %1 = load i64, ptr %__n.addr, align 8
  %add.ptr = getelementptr inbounds float, ptr %0, i64 %1
  ret ptr %add.ptr
}

; Function Attrs: mustprogress nounwind uwtable
define linkonce_odr hidden noundef nonnull align 4 dereferenceable(4) ptr @_ZNK19OpenColorIO_v2_4dev6ArrayTIfEixEm(ptr noundef nonnull align 8 dereferenceable(48) %this, i64 noundef %index) #7 comdat align 2 {
entry:
  %this.addr = alloca ptr, align 8
  %index.addr = alloca i64, align 8
  store ptr %this, ptr %this.addr, align 8
  store i64 %index, ptr %index.addr, align 8
  %this1 = load ptr, ptr %this.addr, align 8
  %m_data = getelementptr inbounds %"class.OpenColorIO_v2_4dev::ArrayT", ptr %this1, i32 0, i32 3
  %0 = load i64, ptr %index.addr, align 8
  %call = call noundef nonnull align 4 dereferenceable(4) ptr @_ZNKSt6vectorIfSaIfEEixEm(ptr noundef nonnull align 8 dereferenceable(24) %m_data, i64 noundef %0) #3
  ret ptr %call
}

; Function Attrs: mustprogress nounwind uwtable
define linkonce_odr hidden noundef nonnull align 8 dereferenceable(48) ptr @_ZNK19OpenColorIO_v2_4dev11Lut3DOpData8getArrayEv(ptr noundef nonnull align 8 dereferenceable(232) %this) #7 comdat align 2 {
entry:
  %this.addr = alloca ptr, align 8
  store ptr %this, ptr %this.addr, align 8
  %this1 = load ptr, ptr %this.addr, align 8
  %m_array = getelementptr inbounds %"class.OpenColorIO_v2_4dev::Lut3DOpData", ptr %this1, i32 0, i32 2
  ret ptr %m_array
}

; Function Attrs: mustprogress uwtable
define hidden void @_ZNK19OpenColorIO_v2_4dev18Lut3DTransformImpl8getValueEmmmRfS1_S1_(ptr noundef nonnull align 8 dereferenceable(240) %this, i64 noundef %indexR, i64 noundef %indexG, i64 noundef %indexB, ptr noundef nonnull align 4 dereferenceable(4) %r, ptr noundef nonnull align 4 dereferenceable(4) %g, ptr noundef nonnull align 4 dereferenceable(4) %b) unnamed_addr #4 align 2 {
entry:
  %this.addr = alloca ptr, align 8
  %indexR.addr = alloca i64, align 8
  %indexG.addr = alloca i64, align 8
  %indexB.addr = alloca i64, align 8
  %r.addr = alloca ptr, align 8
  %g.addr = alloca ptr, align 8
  %b.addr = alloca ptr, align 8
  %gs = alloca i64, align 8
  %arrayIdx = alloca i64, align 8
  store ptr %this, ptr %this.addr, align 8
  store i64 %indexR, ptr %indexR.addr, align 8
  store i64 %indexG, ptr %indexG.addr, align 8
  store i64 %indexB, ptr %indexB.addr, align 8
  store ptr %r, ptr %r.addr, align 8
  store ptr %g, ptr %g.addr, align 8
  store ptr %b, ptr %b.addr, align 8
  %this1 = load ptr, ptr %this.addr, align 8
  %vtable = load ptr, ptr %this1, align 8
  %vfn = getelementptr inbounds ptr, ptr %vtable, i64 12
  %0 = load ptr, ptr %vfn, align 8
  %call = call noundef i64 %0(ptr noundef nonnull align 8 dereferenceable(240) %this1)
  store i64 %call, ptr %gs, align 8
  %1 = load i64, ptr %indexR.addr, align 8
  %2 = load i64, ptr %gs, align 8
  call void @_ZN19OpenColorIO_v2_4dev12_GLOBAL__N_115CheckLUT3DIndexEPKcS2_mm(ptr noundef @.str.2, ptr noundef @_ZN19OpenColorIO_v2_4dev12_GLOBAL__N_111COMPONENT_RE, i64 noundef %1, i64 noundef %2)
  %3 = load i64, ptr %indexG.addr, align 8
  %4 = load i64, ptr %gs, align 8
  call void @_ZN19OpenColorIO_v2_4dev12_GLOBAL__N_115CheckLUT3DIndexEPKcS2_mm(ptr noundef @.str.2, ptr noundef @_ZN19OpenColorIO_v2_4dev12_GLOBAL__N_111COMPONENT_GE, i64 noundef %3, i64 noundef %4)
  %5 = load i64, ptr %indexB.addr, align 8
  %6 = load i64, ptr %gs, align 8
  call void @_ZN19OpenColorIO_v2_4dev12_GLOBAL__N_115CheckLUT3DIndexEPKcS2_mm(ptr noundef @.str.2, ptr noundef @_ZN19OpenColorIO_v2_4dev12_GLOBAL__N_111COMPONENT_BE, i64 noundef %5, i64 noundef %6)
  %7 = load i64, ptr %indexR.addr, align 8
  %8 = load i64, ptr %gs, align 8
  %mul = mul i64 %7, %8
  %9 = load i64, ptr %indexG.addr, align 8
  %add = add i64 %mul, %9
  %10 = load i64, ptr %gs, align 8
  %mul2 = mul i64 %add, %10
  %11 = load i64, ptr %indexB.addr, align 8
  %add3 = add i64 %mul2, %11
  %mul4 = mul i64 3, %add3
  store i64 %mul4, ptr %arrayIdx, align 8
  %m_data = getelementptr inbounds %"class.OpenColorIO_v2_4dev::Lut3DTransformImpl", ptr %this1, i32 0, i32 1
  %call5 = call noundef nonnull align 8 dereferenceable(48) ptr @_ZNK19OpenColorIO_v2_4dev11Lut3DOpData8getArrayEv(ptr noundef nonnull align 8 dereferenceable(232) %m_data)
  %12 = load i64, ptr %arrayIdx, align 8
  %call6 = call noundef nonnull align 4 dereferenceable(4) ptr @_ZNK19OpenColorIO_v2_4dev6ArrayTIfEixEm(ptr noundef nonnull align 8 dereferenceable(48) %call5, i64 noundef %12)
  %13 = load float, ptr %call6, align 4
  %14 = load ptr, ptr %r.addr, align 8
  store float %13, ptr %14, align 4
  %m_data7 = getelementptr inbounds %"class.OpenColorIO_v2_4dev::Lut3DTransformImpl", ptr %this1, i32 0, i32 1
  %call8 = call noundef nonnull align 8 dereferenceable(48) ptr @_ZNK19OpenColorIO_v2_4dev11Lut3DOpData8getArrayEv(ptr noundef nonnull align 8 dereferenceable(232) %m_data7)
  %15 = load i64, ptr %arrayIdx, align 8
  %add9 = add i64 %15, 1
  %call10 = call noundef nonnull align 4 dereferenceable(4) ptr @_ZNK19OpenColorIO_v2_4dev6ArrayTIfEixEm(ptr noundef nonnull align 8 dereferenceable(48) %call8, i64 noundef %add9)
  %16 = load float, ptr %call10, align 4
  %17 = load ptr, ptr %g.addr, align 8
  store float %16, ptr %17, align 4
  %m_data11 = getelementptr inbounds %"class.OpenColorIO_v2_4dev::Lut3DTransformImpl", ptr %this1, i32 0, i32 1
  %call12 = call noundef nonnull align 8 dereferenceable(48) ptr @_ZNK19OpenColorIO_v2_4dev11Lut3DOpData8getArrayEv(ptr noundef nonnull align 8 dereferenceable(232) %m_data11)
  %18 = load i64, ptr %arrayIdx, align 8
  %add13 = add i64 %18, 2
  %call14 = call noundef nonnull align 4 dereferenceable(4) ptr @_ZNK19OpenColorIO_v2_4dev6ArrayTIfEixEm(ptr noundef nonnull align 8 dereferenceable(48) %call12, i64 noundef %add13)
  %19 = load float, ptr %call14, align 4
  %20 = load ptr, ptr %b.addr, align 8
  store float %19, ptr %20, align 4
  ret void
}